target datalayout = "e-m:e-p270:32:32-p271:32:32-p272:64:64-i64:64-i128:128-f80:128-n8:16:32:64-S128"
target triple = "x86_64-pc-linux-gnu"

%"struct.cv::utils::trace::details::Region::LocationStaticStorage" = type { ptr, ptr, ptr, i32, i32 }
%"class.cv::utils::trace::details::Region" = type <{ ptr, i32, [4 x i8] }>
%"class.cv::TermCriteria" = type { i32, i32, double }
%"struct.cv::ml::RTreeParams" = type { i8, i32, %"class.cv::TermCriteria" }

@_ZZN2cv2ml11RTreeParamsC1EvE24__cv_trace_location_fn52 = internal constant %"struct.cv::utils::trace::details::Region::LocationStaticStorage" { ptr @_ZZN2cv2ml11RTreeParamsC1EvE30__cv_trace_location_extra_fn52, ptr @.str, ptr @.str.1, i32 52, i32 1 }, align 8

; Function Attrs: inlinehint mustprogress nounwind uwtable
define linkonce_odr hidden void @_ZN2cv5utils5trace7details6RegionD2Ev(ptr noundef nonnull align 8 dereferenceable(12) %0) unnamed_addr #5 comdat align 2 personality ptr @__gxx_personality_v0 {
  %2 = alloca ptr, align 8
  store ptr %0, ptr %2, align 8, !tbaa !23
  %3 = load ptr, ptr %2, align 8
  %4 = getelementptr inbounds nuw %"class.cv::utils::trace::details::Region", ptr %3, i32 0, i32 1
  %5 = load i32, ptr %4, align 8, !tbaa !25
  %6 = icmp ne i32 %5, 0
  br i1 %6, label %7, label %9

7:                                                ; preds = %1
  invoke void @_ZN2cv5utils5trace7details6Region7destroyEv(ptr noundef nonnull align 8 dereferenceable(12) %3)
          to label %8 unwind label %10

8:                                                ; preds = %7
  br label %9

9:                                                ; preds = %8, %1
  ret void

10:                                               ; preds = %7
  %11 = landingpad { ptr, i32 }
          catch ptr null
  %12 = extractvalue { ptr, i32 } %11, 0
  call void @__clang_call_terminate(ptr %12) #23
  unreachable
}

; Function Attrs: inlinehint mustprogress nounwind uwtable
define linkonce_odr hidden void @_ZN2cv12TermCriteriaC2Eiid(ptr noundef nonnull align 8 dereferenceable(16) %0, i32 noundef %1, i32 noundef %2, double noundef %3) unnamed_addr #5 comdat align 2 {
  %5 = alloca ptr, align 8
  %6 = alloca i32, align 4
  %7 = alloca i32, align 4
  %8 = alloca double, align 8
  store ptr %0, ptr %5, align 8, !tbaa !18
  store i32 %1, ptr %6, align 4, !tbaa !16
  store i32 %2, ptr %7, align 4, !tbaa !16
  store double %3, ptr %8, align 8, !tbaa !17
  %9 = load ptr, ptr %5, align 8
  %10 = getelementptr inbounds nuw %"class.cv::TermCriteria", ptr %9, i32 0, i32 0
  %11 = load i32, ptr %6, align 4, !tbaa !16
  store i32 %11, ptr %10, align 8, !tbaa !20
  %12 = getelementptr inbounds nuw %"class.cv::TermCriteria", ptr %9, i32 0, i32 1
  %13 = load i32, ptr %7, align 4, !tbaa !16
  store i32 %13, ptr %12, align 4, !tbaa !21
  %14 = getelementptr inbounds nuw %"class.cv::TermCriteria", ptr %9, i32 0, i32 2
  %15 = load double, ptr %8, align 8, !tbaa !17
  store double %15, ptr %14, align 8, !tbaa !22
  ret void
}

; Function Attrs: inlinehint mustprogress nounwind uwtable
define linkonce_odr hidden void @_ZN2cv12TermCriteriaC2Ev(ptr noundef nonnull align 8 dereferenceable(16) %0) unnamed_addr #5 comdat align 2 {
  %2 = alloca ptr, align 8
  store ptr %0, ptr %2, align 8, !tbaa !18
  %3 = load ptr, ptr %2, align 8
  %4 = getelementptr inbounds nuw %"class.cv::TermCriteria", ptr %3, i32 0, i32 0
  store i32 0, ptr %4, align 8, !tbaa !20
  %5 = getelementptr inbounds nuw %"class.cv::TermCriteria", ptr %3, i32 0, i32 1
  store i32 0, ptr %5, align 4, !tbaa !21
  %6 = getelementptr inbounds nuw %"class.cv::TermCriteria", ptr %3, i32 0, i32 2
  store double 0.000000e+00, ptr %6, align 8, !tbaa !22
  ret void
}

; Function Attrs: mustprogress uwtable
define hidden void @_ZN2cv2ml11RTreeParamsC2Ev(ptr noundef nonnull align 8 dereferenceable(24) %0) unnamed_addr #4 align 2 personality ptr @__gxx_personality_v0 {
  %2 = alloca ptr, align 8
  %3 = alloca %"class.cv::utils::trace::details::Region", align 8
  %4 = alloca %"class.cv::TermCriteria", align 8
  %5 = alloca ptr, align 8
  %6 = alloca i32, align 4
  store ptr %0, ptr %2, align 8, !tbaa !3
  %7 = load ptr, ptr %2, align 8
  %8 = getelementptr inbounds nuw %"struct.cv::ml::RTreeParams", ptr %7, i32 0, i32 2
  call void @_ZN2cv12TermCriteriaC2Ev(ptr noundef nonnull align 8 dereferenceable(16) %8)
  call void @llvm.lifetime.start.p0(i64 16, ptr %3) #3
  call void @_ZN2cv5utils5trace7details6RegionC1ERKNS3_21LocationStaticStorageE(ptr noundef nonnull align 8 dereferenceable(12) %3, ptr noundef nonnull align 8 dereferenceable(32) @_ZZN2cv2ml11RTreeParamsC1EvE24__cv_trace_location_fn52)
  %9 = getelementptr inbounds nuw %"struct.cv::ml::RTreeParams", ptr %7, i32 0, i32 0
  store i8 0, ptr %9, align 8, !tbaa !8
  %10 = getelementptr inbounds nuw %"struct.cv::ml::RTreeParams", ptr %7, i32 0, i32 1
  store i32 0, ptr %10, align 4, !tbaa !14
  call void @llvm.lifetime.start.p0(i64 16, ptr %4) #3
  invoke void @_ZN2cv12TermCriteriaC2Eiid(ptr noundef nonnull align 8 dereferenceable(16) %4, i32 noundef 3, i32 noundef 50, double noundef 1.000000e-01)
          to label %11 unwind label %13

11:                                               ; preds = %1
  %12 = getelementptr inbounds nuw %"struct.cv::ml::RTreeParams", ptr %7, i32 0, i32 2
  call void @llvm.memcpy.p0.p0.i64(ptr align 8 %12, ptr align 8 %4, i64 16, i1 false), !tbaa.struct !15
  call void @llvm.lifetime.end.p0(i64 16, ptr %4) #3
  call void @_ZN2cv5utils5trace7details6RegionD2Ev(ptr noundef nonnull align 8 dereferenceable(12) %3) #3
  call void @llvm.lifetime.end.p0(i64 16, ptr %3) #3
  ret void

13:                                               ; preds = %1
  %14 = landingpad { ptr, i32 }
          cleanup
  %15 = extractvalue { ptr, i32 } %14, 0
  store ptr %15, ptr %5, align 8
  %16 = extractvalue { ptr, i32 } %14, 1
  store i32 %16, ptr %6, align 4
  call void @llvm.lifetime.end.p0(i64 16, ptr %4) #3
  call void @_ZN2cv5utils5trace7details6RegionD2Ev(ptr noundef nonnull align 8 dereferenceable(12) %3) #3
  call void @llvm.lifetime.end.p0(i64 16, ptr %3) #3
  br label %17

17:                                               ; preds = %13
  %18 = load ptr, ptr %5, align 8
  %19 = load i32, ptr %6, align 4
  %20 = insertvalue { ptr, i32 } poison, ptr %18, 0
  %21 = insertvalue { ptr, i32 } %20, i32 %19, 1
  resume { ptr, i32 } %21
}